target datalayout = "e-m:e-p270:32:32-p271:32:32-p272:64:64-i64:64-i128:128-f80:128-n8:16:32:64-S128"
target triple = "x86_64-pc-linux-gnu"

@stderr = external global ptr, align 8
@.str.1 = private unnamed_addr constant [41 x i8] c"Warning: degenerate star of %u vertices\0A\00", align 1
@.str.2 = private unnamed_addr constant [42 x i8] c"Warning: degenerate wheel of %u vertices\0A\00", align 1

; Function Attrs: nounwind uwtable
define dso_local void @makePath(i32 noundef %0, ptr noundef %1) #0 {
  %3 = alloca i32, align 4
  %4 = alloca ptr, align 8
  %5 = alloca i32, align 4
  store i32 %0, ptr %3, align 4, !tbaa !4
  store ptr %1, ptr %4, align 8, !tbaa !8
  %6 = load i32, ptr %3, align 4, !tbaa !4
  %7 = icmp eq i32 %6, 1
  br i1 %7, label %8, label %10

8:                                                ; preds = %2
  %9 = load ptr, ptr %4, align 8, !tbaa !8
  call void %9(i32 noundef 1, i32 noundef 0)
  br label %24

10:                                               ; preds = %2
  call void @llvm.lifetime.start.p0(i64 4, ptr %5) #11
  store i32 2, ptr %5, align 4, !tbaa !4
  br label %11

11:                                               ; preds = %21, %10
  %12 = load i32, ptr %5, align 4, !tbaa !4
  %13 = load i32, ptr %3, align 4, !tbaa !4
  %14 = icmp ule i32 %12, %13
  br i1 %14, label %16, label %15

15:                                               ; preds = %11
  call void @llvm.lifetime.end.p0(i64 4, ptr %5) #11
  br label %24

16:                                               ; preds = %11
  %17 = load ptr, ptr %4, align 8, !tbaa !8
  %18 = load i32, ptr %5, align 4, !tbaa !4
  %19 = sub i32 %18, 1
  %20 = load i32, ptr %5, align 4, !tbaa !4
  call void %17(i32 noundef %19, i32 noundef %20)
  br label %21

21:                                               ; preds = %16
  %22 = load i32, ptr %5, align 4, !tbaa !4
  %23 = add i32 %22, 1
  store i32 %23, ptr %5, align 4, !tbaa !4
  br label %11, !llvm.loop !10

24:                                               ; preds = %8, %15
  ret void
}

; Function Attrs: nounwind uwtable
define dso_local void @makeStar(i32 noundef %0, ptr noundef %1) #0 {
  %3 = alloca i32, align 4
  %4 = alloca ptr, align 8
  %5 = alloca i32, align 4
  store i32 %0, ptr %3, align 4, !tbaa !4
  store ptr %1, ptr %4, align 8, !tbaa !8
  %6 = load i32, ptr %3, align 4, !tbaa !4
  %7 = icmp ult i32 %6, 3
  br i1 %7, label %8, label %14

8:                                                ; preds = %2
  %9 = load ptr, ptr @stderr, align 8, !tbaa !14
  %10 = load i32, ptr %3, align 4, !tbaa !4
  %11 = call i32 (ptr, ptr, ...) @fprintf(ptr noundef %9, ptr noundef @.str.1, i32 noundef %10) #11
  %12 = load i32, ptr %3, align 4, !tbaa !4
  %13 = load ptr, ptr %4, align 8, !tbaa !8
  call void @makePath(i32 noundef %12, ptr noundef %13)
  br label %26

14:                                               ; preds = %2
  call void @llvm.lifetime.start.p0(i64 4, ptr %5) #11
  store i32 2, ptr %5, align 4, !tbaa !4
  br label %15

15:                                               ; preds = %23, %14
  %16 = load i32, ptr %5, align 4, !tbaa !4
  %17 = load i32, ptr %3, align 4, !tbaa !4
  %18 = icmp ule i32 %16, %17
  br i1 %18, label %20, label %19

19:                                               ; preds = %15
  call void @llvm.lifetime.end.p0(i64 4, ptr %5) #11
  br label %26

20:                                               ; preds = %15
  %21 = load ptr, ptr %4, align 8, !tbaa !8
  %22 = load i32, ptr %5, align 4, !tbaa !4
  call void %21(i32 noundef 1, i32 noundef %22)
  br label %23

23:                                               ; preds = %20
  %24 = load i32, ptr %5, align 4, !tbaa !4
  %25 = add i32 %24, 1
  store i32 %25, ptr %5, align 4, !tbaa !4
  br label %15, !llvm.loop !17

26:                                               ; preds = %8, %19
  ret void
}

; Function Attrs: nounwind uwtable
define dso_local void @makeComplete(i32 noundef %0, ptr noundef %1) #0 {
  %3 = alloca i32, align 4
  %4 = alloca ptr, align 8
  %5 = alloca i32, align 4
  %6 = alloca i32, align 4
  %7 = alloca i32, align 4
  store i32 %0, ptr %3, align 4, !tbaa !4
  store ptr %1, ptr %4, align 8, !tbaa !8
  %8 = load i32, ptr %3, align 4, !tbaa !4
  %9 = icmp eq i32 %8, 1
  br i1 %9, label %10, label %12

10:                                               ; preds = %2
  %11 = load ptr, ptr %4, align 8, !tbaa !8
  call void %11(i32 noundef 1, i32 noundef 0)
  br label %37

12:                                               ; preds = %2
  call void @llvm.lifetime.start.p0(i64 4, ptr %5) #11
  store i32 1, ptr %5, align 4, !tbaa !4
  br label %13

13:                                               ; preds = %34, %12
  %14 = load i32, ptr %5, align 4, !tbaa !4
  %15 = load i32, ptr %3, align 4, !tbaa !4
  %16 = icmp ult i32 %14, %15
  br i1 %16, label %18, label %17

17:                                               ; preds = %13
  store i32 2, ptr %6, align 4
  call void @llvm.lifetime.end.p0(i64 4, ptr %5) #11
  br label %37

18:                                               ; preds = %13
  call void @llvm.lifetime.start.p0(i64 4, ptr %7) #11
  %19 = load i32, ptr %5, align 4, !tbaa !4
  %20 = add i32 %19, 1
  store i32 %20, ptr %7, align 4, !tbaa !4
  br label %21

21:                                               ; preds = %30, %18
  %22 = load i32, ptr %7, align 4, !tbaa !4
  %23 = load i32, ptr %3, align 4, !tbaa !4
  %24 = icmp ule i32 %22, %23
  br i1 %24, label %26, label %25

25:                                               ; preds = %21
  store i32 5, ptr %6, align 4
  call void @llvm.lifetime.end.p0(i64 4, ptr %7) #11
  br label %33

26:                                               ; preds = %21
  %27 = load ptr, ptr %4, align 8, !tbaa !8
  %28 = load i32, ptr %5, align 4, !tbaa !4
  %29 = load i32, ptr %7, align 4, !tbaa !4
  call void %27(i32 noundef %28, i32 noundef %29)
  br label %30

30:                                               ; preds = %26
  %31 = load i32, ptr %7, align 4, !tbaa !4
  %32 = add i32 %31, 1
  store i32 %32, ptr %7, align 4, !tbaa !4
  br label %21, !llvm.loop !12

33:                                               ; preds = %25
  br label %34

34:                                               ; preds = %33
  %35 = load i32, ptr %5, align 4, !tbaa !4
  %36 = add i32 %35, 1
  store i32 %36, ptr %5, align 4, !tbaa !4
  br label %13, !llvm.loop !13

37:                                               ; preds = %10, %17
  ret void
}

; Function Attrs: nounwind uwtable
define dso_local void @makeWheel(i32 noundef %0, ptr noundef %1) #0 {
  %3 = alloca i32, align 4
  %4 = alloca ptr, align 8
  %5 = alloca i32, align 4
  store i32 %0, ptr %3, align 4, !tbaa !4
  store ptr %1, ptr %4, align 8, !tbaa !8
  %6 = load i32, ptr %3, align 4, !tbaa !4
  %7 = icmp ult i32 %6, 4
  br i1 %7, label %8, label %14

8:                                                ; preds = %2
  %9 = load ptr, ptr @stderr, align 8, !tbaa !14
  %10 = load i32, ptr %3, align 4, !tbaa !4
  %11 = call i32 (ptr, ptr, ...) @fprintf(ptr noundef %9, ptr noundef @.str.2, i32 noundef %10) #11
  %12 = load i32, ptr %3, align 4, !tbaa !4
  %13 = load ptr, ptr %4, align 8, !tbaa !8
  call void @makeComplete(i32 noundef %12, ptr noundef %13)
  br label %33

14:                                               ; preds = %2
  %15 = load i32, ptr %3, align 4, !tbaa !4
  %16 = load ptr, ptr %4, align 8, !tbaa !8
  call void @makeStar(i32 noundef %15, ptr noundef %16)
  call void @llvm.lifetime.start.p0(i64 4, ptr %5) #11
  store i32 2, ptr %5, align 4, !tbaa !4
  br label %17

17:                                               ; preds = %27, %14
  %18 = load i32, ptr %5, align 4, !tbaa !4
  %19 = load i32, ptr %3, align 4, !tbaa !4
  %20 = icmp ult i32 %18, %19
  br i1 %20, label %22, label %21

21:                                               ; preds = %17
  call void @llvm.lifetime.end.p0(i64 4, ptr %5) #11
  br label %30

22:                                               ; preds = %17
  %23 = load ptr, ptr %4, align 8, !tbaa !8
  %24 = load i32, ptr %5, align 4, !tbaa !4
  %25 = load i32, ptr %5, align 4, !tbaa !4
  %26 = add i32 %25, 1
  call void %23(i32 noundef %24, i32 noundef %26)
  br label %27

27:                                               ; preds = %22
  %28 = load i32, ptr %5, align 4, !tbaa !4
  %29 = add i32 %28, 1
  store i32 %29, ptr %5, align 4, !tbaa !4
  br label %17, !llvm.loop !18

30:                                               ; preds = %21
  %31 = load ptr, ptr %4, align 8, !tbaa !8
  %32 = load i32, ptr %3, align 4, !tbaa !4
  call void %31(i32 noundef 2, i32 noundef %32)
  br label %33

33:                                               ; preds = %30, %8
  ret void
}