; Function Attrs: nounwind uwtable
define dso_local void @makeWheel(i32 noundef %0, ptr noundef readonly captures(none) %1) local_unnamed_addr #0 {
  %3 = icmp ult i32 %0, 4
  br i1 %3, label %4, label %.preheader.i

4:                                                ; preds = %2
  %5 = load ptr, ptr @stderr, align 8, !tbaa !8
  %6 = tail call i32 (ptr, ptr, ...) @fprintf(ptr noundef %5, ptr noundef nonnull @.str.2, i32 noundef %0) #16
  switch i32 %0, label %.lr.ph.preheader.i [
    i32 1, label %7
    i32 0, label %makeComplete.exit
  ]

7:                                                ; preds = %4
  tail call void %1(i32 noundef 1, i32 noundef 0) #15
  br label %makeComplete.exit

.loopexit.i:                                      ; preds = %.lr.ph.i
  %exitcond.not.i = icmp eq i32 %8, %0
  br i1 %exitcond.not.i, label %makeComplete.exit, label %.lr.ph.preheader.i, !llvm.loop !6

.lr.ph.preheader.i:                               ; preds = %4, %.loopexit.i
  %.01116.i = phi i32 [ %8, %.loopexit.i ], [ 1, %4 ]
  %8 = add nuw i32 %.01116.i, 1
  br label %.lr.ph.i

.lr.ph.i:                                         ; preds = %.lr.ph.i, %.lr.ph.preheader.i
  %.015.i = phi i32 [ %9, %.lr.ph.i ], [ %8, %.lr.ph.preheader.i ]
  tail call void %1(i32 noundef %.01116.i, i32 noundef %.015.i) #15
  %9 = add i32 %.015.i, 1
  %.not.i = icmp ugt i32 %9, %0
  br i1 %.not.i, label %.loopexit.i, label %.lr.ph.i, !llvm.loop !7

.preheader.i:                                     ; preds = %2, %.preheader.i
  %.010.i = phi i32 [ %10, %.preheader.i ], [ 2, %2 ]
  tail call void %1(i32 noundef 1, i32 noundef %.010.i) #15
  %10 = add i32 %.010.i, 1
  %.not.i14 = icmp ugt i32 %10, %0
  br i1 %.not.i14, label %makeStar.exit, label %.preheader.i, !llvm.loop !14

makeStar.exit._crit_edge:                         ; preds = %makeStar.exit
  tail call void %1(i32 noundef 2, i32 noundef %0) #15
  br label %makeComplete.exit

makeStar.exit:                                    ; preds = %.preheader.i, %makeStar.exit
  %.015 = phi i32 [ %11, %makeStar.exit ], [ 2, %.preheader.i ]
  %11 = add nuw i32 %.015, 1
  tail call void %1(i32 noundef %.015, i32 noundef %11) #15
  %exitcond.not = icmp eq i32 %11, %0
  br i1 %exitcond.not, label %makeStar.exit._crit_edge, label %makeStar.exit, !llvm.loop !15

makeComplete.exit:                                ; preds = %.loopexit.i, %7, %4, %makeStar.exit._crit_edge
  ret void
}